target datalayout = "e-m:e-p270:32:32-p271:32:32-p272:64:64-i64:64-i128:128-f80:128-n8:16:32:64-S128"
target triple = "x86_64-pc-linux-gnu"

%"class.std::__cxx11::basic_string" = type { %"struct.std::__cxx11::basic_string<char>::_Alloc_hider", i64, %union.anon }
%"struct.std::__cxx11::basic_string<char>::_Alloc_hider" = type { ptr }
%union.anon = type { i64, [8 x i8] }
%"class.std::allocator" = type { i8 }

@.str.16 = private unnamed_addr constant [61 x i8] c"The number of cards of the same rank is wrong (single rank).\00", align 1

; Function Attrs: mustprogress uwtable
define noundef i32 @_ZN10open_spiel9dou_dizhu23GetSingleRankActionBaseEi(i32 noundef %0) #5 personality ptr @__gxx_personality_v0 {
  %2 = alloca i32, align 4
  %3 = alloca i32, align 4
  %4 = alloca %"class.std::__cxx11::basic_string", align 8
  %5 = alloca %"class.std::allocator", align 1
  %6 = alloca ptr, align 8
  %7 = alloca i32, align 4
  store i32 %0, ptr %2, align 4
  %8 = load i32, ptr %2, align 4
  switch i32 %8, label %13 [
    i32 1, label %9
    i32 2, label %10
    i32 3, label %11
    i32 4, label %12
  ]

9:                                                ; preds = %1
  store i32 4, ptr %3, align 4
  br label %25

10:                                               ; preds = %1
  store i32 55, ptr %3, align 4
  br label %25

11:                                               ; preds = %1
  store i32 120, ptr %3, align 4
  br label %25

12:                                               ; preds = %1
  store i32 26043, ptr %3, align 4
  br label %25

13:                                               ; preds = %1
  call void @_ZNSaIcEC1Ev(ptr noundef nonnull align 1 dereferenceable(1) %5) #3
  invoke void @_ZNSt7__cxx1112basic_stringIcSt11char_traitsIcESaIcEEC2IS3_EEPKcRKS3_(ptr noundef nonnull align 8 dereferenceable(32) %4, ptr noundef @.str.16, ptr noundef nonnull align 1 dereferenceable(1) %5)
          to label %14 unwind label %16

14:                                               ; preds = %13
  invoke void @_ZN10open_spiel15SpielFatalErrorERKNSt7__cxx1112basic_stringIcSt11char_traitsIcESaIcEEE(ptr noundef nonnull align 8 dereferenceable(32) %4) #14
          to label %15 unwind label %20

15:                                               ; preds = %14
  unreachable

16:                                               ; preds = %13
  %17 = landingpad { ptr, i32 }
          cleanup
  %18 = extractvalue { ptr, i32 } %17, 0
  store ptr %18, ptr %6, align 8
  %19 = extractvalue { ptr, i32 } %17, 1
  store i32 %19, ptr %7, align 4
  br label %24

20:                                               ; preds = %14
  %21 = landingpad { ptr, i32 }
          cleanup
  %22 = extractvalue { ptr, i32 } %21, 0
  store ptr %22, ptr %6, align 8
  %23 = extractvalue { ptr, i32 } %21, 1
  store i32 %23, ptr %7, align 4
  call void @_ZNSt7__cxx1112basic_stringIcSt11char_traitsIcESaIcEED1Ev(ptr noundef nonnull align 8 dereferenceable(32) %4) #3
  br label %24

24:                                               ; preds = %20, %16
  call void @_ZNSaIcED1Ev(ptr noundef nonnull align 1 dereferenceable(1) %5) #3
  br label %27

25:                                               ; preds = %12, %11, %10, %9
  %26 = load i32, ptr %3, align 4
  ret i32 %26

27:                                               ; preds = %24
  %28 = load ptr, ptr %6, align 8
  %29 = load i32, ptr %7, align 4
  %30 = insertvalue { ptr, i32 } poison, ptr %28, 0
  %31 = insertvalue { ptr, i32 } %30, i32 %29, 1
  resume { ptr, i32 } %31
}