; Function Attrs: mustprogress uwtable
define noundef range(i32 4, 26044) i32 @_ZN10open_spiel9dou_dizhu23GetSingleRankActionBaseEi(i32 noundef %0) local_unnamed_addr #4 personality ptr @__gxx_personality_v0 {
  %2 = alloca %"class.std::__cxx11::basic_string", align 8
  %3 = alloca %"class.std::allocator", align 1
  %switch.tableidx = add i32 %0, -1
  %4 = icmp ult i32 %switch.tableidx, 4
  br i1 %4, label %switch.lookup, label %5

5:                                                ; preds = %1
  call void @_ZNSaIcEC1Ev(ptr noundef nonnull align 1 dereferenceable(1) %3) #19
  invoke void @_ZNSt7__cxx1112basic_stringIcSt11char_traitsIcESaIcEEC2IS3_EEPKcRKS3_(ptr noundef nonnull align 8 dereferenceable(32) %2, ptr noundef nonnull @.str.16, ptr noundef nonnull align 1 dereferenceable(1) %3)
          to label %6 unwind label %8

6:                                                ; preds = %5
  invoke void @_ZN10open_spiel15SpielFatalErrorERKNSt7__cxx1112basic_stringIcSt11char_traitsIcESaIcEEE(ptr noundef nonnull align 8 dereferenceable(32) %2) #20
          to label %7 unwind label %10

7:                                                ; preds = %6
  unreachable

8:                                                ; preds = %5
  %9 = landingpad { ptr, i32 }
          cleanup
  br label %12

10:                                               ; preds = %6
  %11 = landingpad { ptr, i32 }
          cleanup
  call void @_ZNSt7__cxx1112basic_stringIcSt11char_traitsIcESaIcEED1Ev(ptr noundef nonnull align 8 dereferenceable(32) %2) #19
  br label %12

12:                                               ; preds = %10, %8
  %.pn = phi { ptr, i32 } [ %11, %10 ], [ %9, %8 ]
  call void @_ZNSaIcED1Ev(ptr noundef nonnull align 1 dereferenceable(1) %3) #19
  resume { ptr, i32 } %.pn

switch.lookup:                                    ; preds = %1
  %13 = zext nneg i32 %switch.tableidx to i64
  %switch.gep = getelementptr inbounds [4 x i32], ptr @switch.table._ZN10open_spiel9dou_dizhu23SearchSingleRankActionsEPSt6vectorIlSaIlEEN4absl7debian24SpanIKiEEi, i64 0, i64 %13
  %switch.load = load i32, ptr %switch.gep, align 4
  ret i32 %switch.load
}